target datalayout = "e-m:e-p270:32:32-p271:32:32-p272:64:64-i64:64-i128:128-f80:128-n8:16:32:64-S128"
target triple = "x86_64-pc-linux-gnu"

; Function Attrs: nounwind uwtable
define internal ptr @pem_malloc(i32 noundef %0, i32 noundef %1, ptr noundef %2, i32 noundef %3) #0 {
  %5 = alloca i32, align 4
  %6 = alloca i32, align 4
  %7 = alloca ptr, align 8
  %8 = alloca i32, align 4
  store i32 %0, ptr %5, align 4, !tbaa !8
  store i32 %1, ptr %6, align 4, !tbaa !8
  store ptr %2, ptr %7, align 8, !tbaa !3
  store i32 %3, ptr %8, align 4, !tbaa !8
  %9 = load i32, ptr %6, align 4, !tbaa !8
  %10 = and i32 %9, 1
  %11 = icmp ne i32 %10, 0
  br i1 %11, label %12, label %18

12:                                               ; preds = %4
  %13 = load i32, ptr %5, align 4, !tbaa !8
  %14 = sext i32 %13 to i64
  %15 = load ptr, ptr %7, align 8, !tbaa !3
  %16 = load i32, ptr %8, align 4, !tbaa !8
  %17 = call noalias ptr @CRYPTO_secure_malloc(i64 noundef %14, ptr noundef %15, i32 noundef %16)
  br label %24

18:                                               ; preds = %4
  %19 = load i32, ptr %5, align 4, !tbaa !8
  %20 = sext i32 %19 to i64
  %21 = load ptr, ptr %7, align 8, !tbaa !3
  %22 = load i32, ptr %8, align 4, !tbaa !8
  %23 = call noalias ptr @CRYPTO_malloc(i64 noundef %20, ptr noundef %21, i32 noundef %22)
  br label %24

24:                                               ; preds = %18, %12
  %25 = phi ptr [ %17, %12 ], [ %23, %18 ]
  ret ptr %25
}