; Function Attrs: nounwind uwtable
define internal fastcc noalias ptr @pem_malloc(i32 noundef %0, i32 noundef %1, i32 noundef range(i32 789, 1007) %2) unnamed_addr #0 {
  %4 = and i32 %1, 1
  %.not = icmp eq i32 %4, 0
  %5 = sext i32 %0 to i64
  br i1 %.not, label %8, label %6

6:                                                ; preds = %3
  %7 = tail call noalias ptr @CRYPTO_secure_malloc(i64 noundef %5, ptr noundef nonnull @.str.1, i32 noundef %2) #10
  br label %10

8:                                                ; preds = %3
  %9 = tail call noalias ptr @CRYPTO_malloc(i64 noundef %5, ptr noundef nonnull @.str.1, i32 noundef %2) #10
  br label %10

10:                                               ; preds = %8, %6
  %11 = phi ptr [ %7, %6 ], [ %9, %8 ]
  ret ptr %11
}